target datalayout = "e-m:e-p270:32:32-p271:32:32-p272:64:64-i64:64-i128:128-f80:128-n8:16:32:64-S128"
target triple = "x86_64-unknown-linux-gnu"

%"class.node::MemoryRetainer" = type { ptr }
%struct.ngtcp2_vec = type { ptr, i64 }
%"class.node::quic::RegularToken" = type { %"class.node::MemoryRetainer", [57 x i8], %struct.ngtcp2_vec }

; Function Attrs: mustprogress nounwind uwtable
define dso_local noundef zeroext i1 @_ZNK4node4quic12RegularTokencvbEv(ptr noundef nonnull align 8 dereferenceable(88) %this) #4 align 2 {
entry:
  %this.addr = alloca ptr, align 8
  store ptr %this, ptr %this.addr, align 8
  %this1 = load ptr, ptr %this.addr, align 8
  %ptr_ = getelementptr inbounds %"class.node::quic::RegularToken", ptr %this1, i32 0, i32 2
  %base = getelementptr inbounds %struct.ngtcp2_vec, ptr %ptr_, i32 0, i32 0
  %0 = load ptr, ptr %base, align 8
  %cmp = icmp ne ptr %0, null
  br i1 %cmp, label %land.rhs, label %land.end

land.rhs:                                         ; preds = %entry
  %ptr_2 = getelementptr inbounds %"class.node::quic::RegularToken", ptr %this1, i32 0, i32 2
  %len = getelementptr inbounds %struct.ngtcp2_vec, ptr %ptr_2, i32 0, i32 1
  %1 = load i64, ptr %len, align 8
  %cmp3 = icmp ugt i64 %1, 0
  br label %land.end

land.end:                                         ; preds = %land.rhs, %entry
  %2 = phi i1 [ false, %entry ], [ %cmp3, %land.rhs ]
  ret i1 %2
}