; Function Attrs: mustprogress nofree norecurse nosync nounwind willreturn memory(argmem: read) uwtable
define dso_local noundef zeroext i1 @_ZNK4node4quic12RegularTokencvbEv(ptr nocapture noundef nonnull readonly align 8 dereferenceable(88) %this) local_unnamed_addr #10 align 2 {
entry:
  %ptr_ = getelementptr inbounds i8, ptr %this, i64 72
  %0 = load ptr, ptr %ptr_, align 8
  %cmp.not = icmp ne ptr %0, null
  %len = getelementptr inbounds i8, ptr %this, i64 80
  %1 = load i64, ptr %len, align 8
  %cmp3 = icmp ne i64 %1, 0
  %2 = select i1 %cmp.not, i1 %cmp3, i1 false
  ret i1 %2
}